target datalayout = "e-m:e-p270:32:32-p271:32:32-p272:64:64-i64:64-i128:128-f80:128-n8:16:32:64-S128"
target triple = "x86_64-pc-linux-gnu"

%class.Scheduler = type { [200 x %"struct.Scheduler::handType"], [200 x %"struct.Scheduler::groupType"], i32, i32, %"struct.std::atomic", [6 x [200 x %"struct.Scheduler::listType"]], [200 x %"struct.Scheduler::sortType"], i32, %"class.std::vector", %"class.std::vector", %"class.std::vector", i32, i32, %"class.std::vector", %"class.std::vector.0", %class.Timer }
%"struct.Scheduler::handType" = type { i32, i32, [4 x [4 x i32]], i32, i32, i32, i32, i32, i32, i32, i32, i32, i32 }
%"struct.Scheduler::groupType" = type { i32, i32, i32, i32, i32, i32 }
%"struct.std::atomic" = type { %"struct.std::__atomic_base" }
%"struct.std::__atomic_base" = type { i32 }
%"struct.Scheduler::listType" = type { i32, i32, i32 }
%"struct.Scheduler::sortType" = type { i32, i32 }
%"class.std::vector" = type { %"struct.std::_Vector_base" }
%"struct.std::_Vector_base" = type { %"struct.std::_Vector_base<int, std::allocator<int>>::_Vector_impl" }
%"struct.std::_Vector_base<int, std::allocator<int>>::_Vector_impl" = type { %"struct.std::_Vector_base<int, std::allocator<int>>::_Vector_impl_data" }
%"struct.std::_Vector_base<int, std::allocator<int>>::_Vector_impl_data" = type { ptr, ptr, ptr }
%"class.std::vector.0" = type { %"struct.std::_Vector_base.1" }
%"struct.std::_Vector_base.1" = type { %"struct.std::_Vector_base<Timer, std::allocator<Timer>>::_Vector_impl" }
%"struct.std::_Vector_base<Timer, std::allocator<Timer>>::_Vector_impl" = type { %"struct.std::_Vector_base<Timer, std::allocator<Timer>>::_Vector_impl_data" }
%"struct.std::_Vector_base<Timer, std::allocator<Timer>>::_Vector_impl_data" = type { ptr, ptr, ptr }
%class.Timer = type { %"class.std::__cxx11::basic_string", i32, i64, i64, %"class.std::chrono::time_point", i64 }
%"class.std::__cxx11::basic_string" = type { %"struct.std::__cxx11::basic_string<char>::_Alloc_hider", i64, %union.anon }
%"struct.std::__cxx11::basic_string<char>::_Alloc_hider" = type { ptr }
%union.anon = type { i64, [8 x i8] }
%"class.std::chrono::time_point" = type { %"class.std::chrono::duration" }
%"class.std::chrono::duration" = type { i64 }

@SORT_SOLVE_TIMES = global [2 x [8 x i32]] [[8 x i32] [i32 284000, i32 91000, i32 37000, i32 23000, i32 17000, i32 15000, i32 13000, i32 4000], [8 x i32] [i32 388000, i32 140000, i32 60000, i32 40000, i32 30000, i32 23000, i32 18000, i32 6000]], align 16

; Function Attrs: mustprogress nounwind uwtable
define void @_ZN9Scheduler9SortSolveEv(ptr noundef nonnull align 8 dereferenceable(43416) %0) #5 align 2 {
  %2 = alloca ptr, align 8
  %3 = alloca ptr, align 8
  %4 = alloca ptr, align 8
  %5 = alloca i32, align 4
  %6 = alloca i32, align 4
  %7 = alloca i32, align 4
  %8 = alloca i32, align 4
  %9 = alloca i32, align 4
  %10 = alloca i32, align 4
  %11 = alloca i32, align 4
  %12 = alloca ptr, align 8
  %13 = alloca double, align 8
  %14 = alloca %"struct.Scheduler::groupType", align 4
  %15 = alloca i32, align 4
  %16 = alloca i32, align 4
  store ptr %0, ptr %2, align 8
  %17 = load ptr, ptr %2, align 8
  store i32 0, ptr %8, align 4
  br label %18

18:                                               ; preds = %171, %1
  %19 = load i32, ptr %8, align 4
  %20 = getelementptr inbounds nuw %class.Scheduler, ptr %17, i32 0, i32 2
  %21 = load i32, ptr %20, align 8
  %22 = icmp slt i32 %19, %21
  br i1 %22, label %23, label %174

23:                                               ; preds = %18
  %24 = getelementptr inbounds nuw %class.Scheduler, ptr %17, i32 0, i32 1
  %25 = load i32, ptr %8, align 4
  %26 = sext i32 %25 to i64
  %27 = getelementptr inbounds [200 x %"struct.Scheduler::groupType"], ptr %24, i64 0, i64 %26
  %28 = getelementptr inbounds nuw %"struct.Scheduler::groupType", ptr %27, i32 0, i32 0
  %29 = load i32, ptr %28, align 8
  store i32 %29, ptr %5, align 4
  %30 = getelementptr inbounds nuw %class.Scheduler, ptr %17, i32 0, i32 1
  %31 = load i32, ptr %8, align 4
  %32 = sext i32 %31 to i64
  %33 = getelementptr inbounds [200 x %"struct.Scheduler::groupType"], ptr %30, i64 0, i64 %32
  %34 = getelementptr inbounds nuw %"struct.Scheduler::groupType", ptr %33, i32 0, i32 1
  %35 = load i32, ptr %34, align 4
  store i32 %35, ptr %6, align 4
  %36 = getelementptr inbounds nuw %class.Scheduler, ptr %17, i32 0, i32 5
  %37 = load i32, ptr %5, align 4
  %38 = sext i32 %37 to i64
  %39 = getelementptr inbounds [6 x [200 x %"struct.Scheduler::listType"]], ptr %36, i64 0, i64 %38
  %40 = load i32, ptr %6, align 4
  %41 = sext i32 %40 to i64
  %42 = getelementptr inbounds [200 x %"struct.Scheduler::listType"], ptr %39, i64 0, i64 %41
  store ptr %42, ptr %3, align 8
  %43 = load ptr, ptr %3, align 8
  %44 = getelementptr inbounds nuw %"struct.Scheduler::listType", ptr %43, i32 0, i32 0
  %45 = load i32, ptr %44, align 4
  store i32 %45, ptr %7, align 4
  %46 = getelementptr inbounds nuw %class.Scheduler, ptr %17, i32 0, i32 0
  %47 = load i32, ptr %7, align 4
  %48 = sext i32 %47 to i64
  %49 = getelementptr inbounds [200 x %"struct.Scheduler::handType"], ptr %46, i64 0, i64 %48
  store ptr %49, ptr %4, align 8
  store i32 0, ptr %9, align 4
  store i32 -1, ptr %10, align 4
  %50 = getelementptr inbounds nuw %class.Scheduler, ptr %17, i32 0, i32 1
  %51 = load i32, ptr %8, align 4
  %52 = sext i32 %51 to i64
  %53 = getelementptr inbounds [200 x %"struct.Scheduler::groupType"], ptr %50, i64 0, i64 %52
  %54 = getelementptr inbounds nuw %"struct.Scheduler::groupType", ptr %53, i32 0, i32 2
  store i32 0, ptr %54, align 8
  br label %55

55:                                               ; preds = %100, %23
  %56 = getelementptr inbounds nuw %class.Scheduler, ptr %17, i32 0, i32 0
  %57 = load i32, ptr %7, align 4
  %58 = sext i32 %57 to i64
  %59 = getelementptr inbounds [200 x %"struct.Scheduler::handType"], ptr %56, i64 0, i64 %58
  %60 = getelementptr inbounds nuw %"struct.Scheduler::handType", ptr %59, i32 0, i32 4
  %61 = load i32, ptr %60, align 4
  %62 = load i32, ptr %10, align 4
  %63 = icmp ne i32 %61, %62
  br i1 %63, label %64, label %93

64:                                               ; preds = %55
  %65 = load ptr, ptr %4, align 8
  %66 = getelementptr inbounds nuw %"struct.Scheduler::handType", ptr %65, i32 0, i32 3
  %67 = load i32, ptr %66, align 4
  %68 = sext i32 %67 to i64
  %69 = getelementptr inbounds [2 x [8 x i32]], ptr @SORT_SOLVE_TIMES, i64 0, i64 %68
  %70 = load i32, ptr %9, align 4
  %71 = sext i32 %70 to i64
  %72 = getelementptr inbounds [8 x i32], ptr %69, i64 0, i64 %71
  %73 = load i32, ptr %72, align 4
  %74 = getelementptr inbounds nuw %class.Scheduler, ptr %17, i32 0, i32 1
  %75 = load i32, ptr %8, align 4
  %76 = sext i32 %75 to i64
  %77 = getelementptr inbounds [200 x %"struct.Scheduler::groupType"], ptr %74, i64 0, i64 %76
  %78 = getelementptr inbounds nuw %"struct.Scheduler::groupType", ptr %77, i32 0, i32 2
  %79 = load i32, ptr %78, align 8
  %80 = add nsw i32 %79, %73
  store i32 %80, ptr %78, align 8
  %81 = load i32, ptr %9, align 4
  %82 = icmp slt i32 %81, 7
  br i1 %82, label %83, label %86

83:                                               ; preds = %64
  %84 = load i32, ptr %9, align 4
  %85 = add nsw i32 %84, 1
  store i32 %85, ptr %9, align 4
  br label %86

86:                                               ; preds = %83, %64
  %87 = getelementptr inbounds nuw %class.Scheduler, ptr %17, i32 0, i32 0
  %88 = load i32, ptr %7, align 4
  %89 = sext i32 %88 to i64
  %90 = getelementptr inbounds [200 x %"struct.Scheduler::handType"], ptr %87, i64 0, i64 %89
  %91 = getelementptr inbounds nuw %"struct.Scheduler::handType", ptr %90, i32 0, i32 4
  %92 = load i32, ptr %91, align 4
  store i32 %92, ptr %10, align 4
  br label %93

93:                                               ; preds = %86, %55
  %94 = getelementptr inbounds nuw %class.Scheduler, ptr %17, i32 0, i32 0
  %95 = load i32, ptr %7, align 4
  %96 = sext i32 %95 to i64
  %97 = getelementptr inbounds [200 x %"struct.Scheduler::handType"], ptr %94, i64 0, i64 %96
  %98 = getelementptr inbounds nuw %"struct.Scheduler::handType", ptr %97, i32 0, i32 0
  %99 = load i32, ptr %98, align 8
  store i32 %99, ptr %7, align 4
  br label %100

100:                                              ; preds = %93
  %101 = load i32, ptr %7, align 4
  %102 = icmp ne i32 %101, -1
  br i1 %102, label %55, label %103, !llvm.loop !23

103:                                              ; preds = %100
  %104 = load ptr, ptr %4, align 8
  %105 = getelementptr inbounds nuw %"struct.Scheduler::handType", ptr %104, i32 0, i32 9
  %106 = load i32, ptr %105, align 4
  store i32 %106, ptr %11, align 4
  %107 = load ptr, ptr %4, align 8
  %108 = getelementptr inbounds nuw %"struct.Scheduler::handType", ptr %107, i32 0, i32 3
  %109 = load i32, ptr %108, align 4
  %110 = sext i32 %109 to i64
  %111 = getelementptr inbounds [2 x [5 x double]], ptr @SORT_SOLVE_FANOUT, i64 0, i64 %110
  %112 = getelementptr inbounds [5 x double], ptr %111, i64 0, i64 0
  store ptr %112, ptr %12, align 8
  %113 = load i32, ptr %11, align 4
  %114 = sitofp i32 %113 to double
  %115 = load ptr, ptr %12, align 8
  %116 = getelementptr inbounds double, ptr %115, i64 0
  %117 = load double, ptr %116, align 8
  %118 = fcmp olt double %114, %117
  br i1 %118, label %119, label %120

119:                                              ; preds = %103
  store double 0.000000e+00, ptr %13, align 8
  br label %155

120:                                              ; preds = %103
  %121 = load i32, ptr %11, align 4
  %122 = sitofp i32 %121 to double
  %123 = load ptr, ptr %12, align 8
  %124 = getelementptr inbounds double, ptr %123, i64 1
  %125 = load double, ptr %124, align 8
  %126 = fcmp olt double %122, %125
  br i1 %126, label %127, label %138

127:                                              ; preds = %120
  %128 = load ptr, ptr %12, align 8
  %129 = getelementptr inbounds double, ptr %128, i64 2
  %130 = load double, ptr %129, align 8
  %131 = load i32, ptr %11, align 4
  %132 = sitofp i32 %131 to double
  %133 = load ptr, ptr %12, align 8
  %134 = getelementptr inbounds double, ptr %133, i64 0
  %135 = load double, ptr %134, align 8
  %136 = fsub double %132, %135
  %137 = fmul double %130, %136
  store double %137, ptr %13, align 8
  br label %154

138:                                              ; preds = %120
  %139 = load ptr, ptr %12, align 8
  %140 = getelementptr inbounds double, ptr %139, i64 3
  %141 = load double, ptr %140, align 8
  %142 = load i32, ptr %11, align 4
  %143 = sitofp i32 %142 to double
  %144 = load ptr, ptr %12, align 8
  %145 = getelementptr inbounds double, ptr %144, i64 1
  %146 = load double, ptr %145, align 8
  %147 = fsub double %143, %146
  %148 = load ptr, ptr %12, align 8
  %149 = getelementptr inbounds double, ptr %148, i64 4
  %150 = load double, ptr %149, align 8
  %151 = fdiv double %147, %150
  %152 = call double @exp(double noundef %151) #3
  %153 = fmul double %141, %152
  store double %153, ptr %13, align 8
  br label %154

154:                                              ; preds = %138, %127
  br label %155

155:                                              ; preds = %154, %119
  %156 = load double, ptr %13, align 8
  %157 = getelementptr inbounds nuw %class.Scheduler, ptr %17, i32 0, i32 1
  %158 = load i32, ptr %8, align 4
  %159 = sext i32 %158 to i64
  %160 = getelementptr inbounds [200 x %"struct.Scheduler::groupType"], ptr %157, i64 0, i64 %159
  %161 = getelementptr inbounds nuw %"struct.Scheduler::groupType", ptr %160, i32 0, i32 2
  %162 = load i32, ptr %161, align 8
  %163 = sitofp i32 %162 to double
  %164 = fmul double %156, %163
  %165 = fptosi double %164 to i32
  %166 = getelementptr inbounds nuw %class.Scheduler, ptr %17, i32 0, i32 1
  %167 = load i32, ptr %8, align 4
  %168 = sext i32 %167 to i64
  %169 = getelementptr inbounds [200 x %"struct.Scheduler::groupType"], ptr %166, i64 0, i64 %168
  %170 = getelementptr inbounds nuw %"struct.Scheduler::groupType", ptr %169, i32 0, i32 2
  store i32 %165, ptr %170, align 8
  br label %171

171:                                              ; preds = %155
  %172 = load i32, ptr %8, align 4
  %173 = add nsw i32 %172, 1
  store i32 %173, ptr %8, align 4
  br label %18, !llvm.loop !24

174:                                              ; preds = %18
  store i32 0, ptr %15, align 4
  br label %175

175:                                              ; preds = %220, %174
  %176 = load i32, ptr %15, align 4
  %177 = getelementptr inbounds nuw %class.Scheduler, ptr %17, i32 0, i32 2
  %178 = load i32, ptr %177, align 8
  %179 = icmp slt i32 %176, %178
  br i1 %179, label %180, label %223

180:                                              ; preds = %175
  %181 = getelementptr inbounds nuw %class.Scheduler, ptr %17, i32 0, i32 1
  %182 = load i32, ptr %15, align 4
  %183 = sext i32 %182 to i64
  %184 = getelementptr inbounds [200 x %"struct.Scheduler::groupType"], ptr %181, i64 0, i64 %183
  call void @llvm.memcpy.p0.p0.i64(ptr align 4 %14, ptr align 8 %184, i64 24, i1 false)
  %185 = load i32, ptr %15, align 4
  store i32 %185, ptr %16, align 4
  br label %186

186:                                              ; preds = %212, %180
  %187 = load i32, ptr %16, align 4
  %188 = icmp ne i32 %187, 0
  br i1 %188, label %189, label %200

189:                                              ; preds = %186
  %190 = getelementptr inbounds nuw %"struct.Scheduler::groupType", ptr %14, i32 0, i32 2
  %191 = load i32, ptr %190, align 4
  %192 = getelementptr inbounds nuw %class.Scheduler, ptr %17, i32 0, i32 1
  %193 = load i32, ptr %16, align 4
  %194 = sub nsw i32 %193, 1
  %195 = sext i32 %194 to i64
  %196 = getelementptr inbounds [200 x %"struct.Scheduler::groupType"], ptr %192, i64 0, i64 %195
  %197 = getelementptr inbounds nuw %"struct.Scheduler::groupType", ptr %196, i32 0, i32 2
  %198 = load i32, ptr %197, align 8
  %199 = icmp sgt i32 %191, %198
  br label %200

200:                                              ; preds = %189, %186
  %201 = phi i1 [ false, %186 ], [ %199, %189 ]
  br i1 %201, label %202, label %215

202:                                              ; preds = %200
  %203 = getelementptr inbounds nuw %class.Scheduler, ptr %17, i32 0, i32 1
  %204 = load i32, ptr %16, align 4
  %205 = sub nsw i32 %204, 1
  %206 = sext i32 %205 to i64
  %207 = getelementptr inbounds [200 x %"struct.Scheduler::groupType"], ptr %203, i64 0, i64 %206
  %208 = getelementptr inbounds nuw %class.Scheduler, ptr %17, i32 0, i32 1
  %209 = load i32, ptr %16, align 4
  %210 = sext i32 %209 to i64
  %211 = getelementptr inbounds [200 x %"struct.Scheduler::groupType"], ptr %208, i64 0, i64 %210
  call void @llvm.memcpy.p0.p0.i64(ptr align 8 %211, ptr align 8 %207, i64 24, i1 false)
  br label %212

212:                                              ; preds = %202
  %213 = load i32, ptr %16, align 4
  %214 = add nsw i32 %213, -1
  store i32 %214, ptr %16, align 4
  br label %186, !llvm.loop !25

215:                                              ; preds = %200
  %216 = getelementptr inbounds nuw %class.Scheduler, ptr %17, i32 0, i32 1
  %217 = load i32, ptr %16, align 4
  %218 = sext i32 %217 to i64
  %219 = getelementptr inbounds [200 x %"struct.Scheduler::groupType"], ptr %216, i64 0, i64 %218
  call void @llvm.memcpy.p0.p0.i64(ptr align 8 %219, ptr align 4 %14, i64 24, i1 false)
  br label %220

220:                                              ; preds = %215
  %221 = load i32, ptr %15, align 4
  %222 = add nsw i32 %221, 1
  store i32 %222, ptr %15, align 4
  br label %175, !llvm.loop !26

223:                                              ; preds = %175
  ret void
}