; Function Attrs: mustprogress nofree nounwind memory(readwrite, inaccessiblemem: write) uwtable
define void @_ZN9Scheduler9SortSolveEv(ptr nocapture noundef nonnull align 8 dereferenceable(43416) %0) local_unnamed_addr #6 align 2 {
  %.sroa.3 = alloca { i32, i32, i32 }, align 8
  %2 = getelementptr inbounds nuw i8, ptr %0, i64 27200
  %3 = load i32, ptr %2, align 8
  %4 = icmp sgt i32 %3, 0
  br i1 %4, label %.lr.ph, label %._crit_edge

.lr.ph:                                           ; preds = %1
  %5 = getelementptr inbounds nuw i8, ptr %0, i64 22400
  %6 = getelementptr inbounds nuw i8, ptr %0, i64 27212
  br label %9

.preheader:                                       ; preds = %68
  %7 = icmp sgt i32 %69, 0
  br i1 %7, label %.lr.ph68, label %._crit_edge

.lr.ph68:                                         ; preds = %.preheader
  %8 = getelementptr inbounds nuw i8, ptr %0, i64 22400
  br label %76

9:                                                ; preds = %.lr.ph, %68
  %10 = phi i32 [ %3, %.lr.ph ], [ %69, %68 ]
  %indvars.iv = phi i64 [ 0, %.lr.ph ], [ %indvars.iv.next, %68 ]
  %11 = getelementptr inbounds [200 x %"struct.Scheduler::groupType"], ptr %5, i64 0, i64 %indvars.iv
  %12 = load i32, ptr %11, align 8
  %13 = getelementptr inbounds nuw i8, ptr %11, i64 4
  %14 = load i32, ptr %13, align 4
  %15 = sext i32 %12 to i64
  %16 = sext i32 %14 to i64
  %17 = getelementptr inbounds [6 x [200 x %"struct.Scheduler::listType"]], ptr %6, i64 0, i64 %15, i64 %16
  %18 = load i32, ptr %17, align 4
  %19 = sext i32 %18 to i64
  %20 = getelementptr inbounds [200 x %"struct.Scheduler::handType"], ptr %0, i64 0, i64 %19
  %21 = getelementptr inbounds nuw i8, ptr %11, i64 8
  store i32 0, ptr %21, align 8
  %22 = getelementptr inbounds nuw i8, ptr %20, i64 72
  br label %23

23:                                               ; preds = %38, %9
  %24 = phi i32 [ 0, %9 ], [ %39, %38 ]
  %.053 = phi i32 [ -1, %9 ], [ %.154, %38 ]
  %.052 = phi i32 [ 0, %9 ], [ %.1, %38 ]
  %.049 = phi i32 [ %18, %9 ], [ %40, %38 ]
  %25 = sext i32 %.049 to i64
  %26 = getelementptr inbounds [200 x %"struct.Scheduler::handType"], ptr %0, i64 0, i64 %25
  %27 = getelementptr inbounds nuw i8, ptr %26, i64 76
  %28 = load i32, ptr %27, align 4
  %.not59 = icmp eq i32 %28, %.053
  br i1 %.not59, label %38, label %29

29:                                               ; preds = %23
  %30 = load i32, ptr %22, align 8
  %31 = sext i32 %30 to i64
  %32 = sext i32 %.052 to i64
  %33 = getelementptr inbounds [2 x [8 x i32]], ptr @SORT_SOLVE_TIMES, i64 0, i64 %31, i64 %32
  %34 = load i32, ptr %33, align 4
  %35 = add nsw i32 %24, %34
  store i32 %35, ptr %21, align 8
  %36 = icmp slt i32 %.052, 7
  %37 = zext i1 %36 to i32
  %spec.select = add nsw i32 %.052, %37
  br label %38

38:                                               ; preds = %29, %23
  %39 = phi i32 [ %35, %29 ], [ %24, %23 ]
  %.154 = phi i32 [ %28, %29 ], [ %.053, %23 ]
  %.1 = phi i32 [ %spec.select, %29 ], [ %.052, %23 ]
  %40 = load i32, ptr %26, align 8
  %.not60 = icmp eq i32 %40, -1
  br i1 %.not60, label %41, label %23, !llvm.loop !27

41:                                               ; preds = %38
  %42 = getelementptr inbounds nuw i8, ptr %20, i64 96
  %43 = load i32, ptr %42, align 8
  %44 = load i32, ptr %22, align 8
  %45 = sext i32 %44 to i64
  %46 = getelementptr inbounds [2 x [5 x double]], ptr @SORT_SOLVE_FANOUT, i64 0, i64 %45
  %47 = sitofp i32 %43 to double
  %48 = load double, ptr %46, align 8
  %49 = fcmp ogt double %48, %47
  br i1 %49, label %68, label %50

50:                                               ; preds = %41
  %51 = getelementptr inbounds i8, ptr %46, i64 8
  %52 = load double, ptr %51, align 8
  %53 = fcmp ogt double %52, %47
  br i1 %53, label %54, label %59

54:                                               ; preds = %50
  %55 = getelementptr inbounds i8, ptr %46, i64 16
  %56 = load double, ptr %55, align 8
  %57 = fsub double %47, %48
  %58 = fmul double %57, %56
  br label %68

59:                                               ; preds = %50
  %60 = getelementptr inbounds i8, ptr %46, i64 24
  %61 = load double, ptr %60, align 8
  %62 = fsub double %47, %52
  %63 = getelementptr inbounds i8, ptr %46, i64 32
  %64 = load double, ptr %63, align 8
  %65 = fdiv double %62, %64
  %66 = tail call double @exp(double noundef %65) #23
  %67 = fmul double %61, %66
  %.pre = load i32, ptr %21, align 8
  %.pre76 = load i32, ptr %2, align 8
  br label %68

68:                                               ; preds = %41, %54, %59
  %69 = phi i32 [ %10, %54 ], [ %.pre76, %59 ], [ %10, %41 ]
  %70 = phi i32 [ %39, %54 ], [ %.pre, %59 ], [ %39, %41 ]
  %.050 = phi double [ %58, %54 ], [ %67, %59 ], [ 0.000000e+00, %41 ]
  %71 = sitofp i32 %70 to double
  %72 = fmul double %.050, %71
  %73 = fptosi double %72 to i32
  store i32 %73, ptr %21, align 8
  %indvars.iv.next = add nuw nsw i64 %indvars.iv, 1
  %74 = sext i32 %69 to i64
  %75 = icmp slt i64 %indvars.iv.next, %74
  br i1 %75, label %9, label %.preheader, !llvm.loop !28

76:                                               ; preds = %.lr.ph68, %.critedge
  %indvars.iv70 = phi i64 [ 0, %.lr.ph68 ], [ %indvars.iv.next71, %.critedge ]
  %77 = getelementptr inbounds [200 x %"struct.Scheduler::groupType"], ptr %8, i64 0, i64 %indvars.iv70
  %78 = load i64, ptr %77, align 8
  %.sroa.2.0..sroa_idx = getelementptr inbounds i8, ptr %77, i64 8
  %.sroa.2.0.copyload = load i32, ptr %.sroa.2.0..sroa_idx, align 8
  %.sroa.3.0..sroa_idx = getelementptr inbounds i8, ptr %77, i64 12
  call void @llvm.memcpy.p0.p0.i64(ptr noundef nonnull align 8 dereferenceable(12) %.sroa.3, ptr noundef nonnull align 4 dereferenceable(12) %.sroa.3.0..sroa_idx, i64 12, i1 false)
  %.not62 = icmp eq i64 %indvars.iv70, 0
  br i1 %.not62, label %.critedge, label %.lr.ph64

.lr.ph64:                                         ; preds = %76, %83
  %indvars.iv72 = phi i64 [ %indvars.iv.next73, %83 ], [ %indvars.iv70, %76 ]
  %indvars.iv.next73 = add nsw i64 %indvars.iv72, -1
  %79 = getelementptr inbounds [200 x %"struct.Scheduler::groupType"], ptr %8, i64 0, i64 %indvars.iv.next73
  %80 = getelementptr inbounds nuw i8, ptr %79, i64 8
  %81 = load i32, ptr %80, align 8
  %82 = icmp sgt i32 %.sroa.2.0.copyload, %81
  br i1 %82, label %83, label %.critedge.loopexit

83:                                               ; preds = %.lr.ph64
  %84 = getelementptr inbounds [200 x %"struct.Scheduler::groupType"], ptr %8, i64 0, i64 %indvars.iv72
  tail call void @llvm.memcpy.p0.p0.i64(ptr noundef nonnull align 8 dereferenceable(24) %84, ptr noundef nonnull align 8 dereferenceable(24) %79, i64 24, i1 false)
  %85 = icmp eq i64 %indvars.iv.next73, 0
  br i1 %85, label %.critedge.loopexit, label %.lr.ph64, !llvm.loop !29

.critedge.loopexit:                               ; preds = %83, %.lr.ph64
  %.0.lcssa.ph = phi i64 [ %indvars.iv72, %.lr.ph64 ], [ 0, %83 ]
  %86 = shl i64 %.0.lcssa.ph, 32
  %87 = ashr exact i64 %86, 32
  br label %.critedge

.critedge:                                        ; preds = %.critedge.loopexit, %76
  %.0.lcssa = phi i64 [ 0, %76 ], [ %87, %.critedge.loopexit ]
  %88 = getelementptr inbounds [200 x %"struct.Scheduler::groupType"], ptr %8, i64 0, i64 %.0.lcssa
  store i64 %78, ptr %88, align 8
  %.sroa.2.0..sroa_idx10 = getelementptr inbounds i8, ptr %88, i64 8
  store i32 %.sroa.2.0.copyload, ptr %.sroa.2.0..sroa_idx10, align 8
  %.sroa.3.0..sroa_idx12 = getelementptr inbounds i8, ptr %88, i64 12
  call void @llvm.memcpy.p0.p0.i64(ptr noundef nonnull align 4 dereferenceable(12) %.sroa.3.0..sroa_idx12, ptr noundef nonnull align 8 dereferenceable(12) %.sroa.3, i64 12, i1 false)
  %indvars.iv.next71 = add nuw nsw i64 %indvars.iv70, 1
  %89 = load i32, ptr %2, align 8
  %90 = sext i32 %89 to i64
  %91 = icmp slt i64 %indvars.iv.next71, %90
  br i1 %91, label %76, label %._crit_edge, !llvm.loop !30

._crit_edge:                                      ; preds = %.critedge, %1, %.preheader
  ret void
}